; Function Attrs: mustprogress uwtable
define void @_ZN7rocksdb14ObjectRegistry7DefaultEv(ptr dead_on_unwind noalias writable writeonly sret(%"class.std::shared_ptr.48") align 8 captures(none) %0) local_unnamed_addr #0 align 2 personality ptr @__gxx_personality_v0 {
  %2 = load atomic i8, ptr @_ZGVZN7rocksdb14ObjectRegistry7DefaultEvE8instance acquire, align 8
  %3 = icmp eq i8 %2, 0
  br i1 %3, label %4, label %12, !prof !64

4:                                                ; preds = %1
  %5 = tail call i32 @__cxa_guard_acquire(ptr nonnull @_ZGVZN7rocksdb14ObjectRegistry7DefaultEvE8instance) #23
  %.not = icmp eq i32 %5, 0
  br i1 %.not, label %12, label %6

6:                                                ; preds = %4
  %7 = invoke noalias noundef nonnull dereferenceable(16) ptr @_Znwm(i64 noundef 16) #26
          to label %8 unwind label %26

8:                                                ; preds = %6
  %9 = invoke noundef nonnull align 8 dereferenceable(16) ptr @_ZN7rocksdb13ObjectLibrary7DefaultEv()
          to label %10 unwind label %28

10:                                               ; preds = %8
  invoke void @_ZSt11make_sharedIN7rocksdb14ObjectRegistryEJRSt10shared_ptrINS0_13ObjectLibraryEEEES2_INSt9enable_ifIXntsr8is_arrayIT_EE5valueES7_E4typeEEDpOT0_(ptr dead_on_unwind nonnull writable sret(%"class.std::shared_ptr.48") align 8 %7, ptr noundef nonnull align 8 dereferenceable(16) %9)
          to label %11 unwind label %28

11:                                               ; preds = %10
  store ptr %7, ptr @_ZZN7rocksdb14ObjectRegistry7DefaultEvE8instance, align 8, !tbaa !102
  tail call void @__cxa_guard_release(ptr nonnull @_ZGVZN7rocksdb14ObjectRegistry7DefaultEvE8instance) #23
  br label %12

12:                                               ; preds = %11, %4, %1
  %13 = load ptr, ptr @_ZZN7rocksdb14ObjectRegistry7DefaultEvE8instance, align 8, !tbaa !102
  %14 = load ptr, ptr %13, align 8, !tbaa !104
  store ptr %14, ptr %0, align 8, !tbaa !104
  %15 = getelementptr inbounds nuw i8, ptr %0, i64 8
  %16 = getelementptr inbounds nuw i8, ptr %13, i64 8
  %17 = load ptr, ptr %16, align 8, !tbaa !76
  store ptr %17, ptr %15, align 8, !tbaa !76
  %.not.i.i.i = icmp eq ptr %17, null
  br i1 %.not.i.i.i, label %_ZNSt10shared_ptrIN7rocksdb14ObjectRegistryEEC2ERKS2_.exit, label %18

18:                                               ; preds = %12
  %19 = getelementptr inbounds nuw i8, ptr %17, i64 8
  %20 = load i8, ptr @__libc_single_threaded, align 1, !tbaa !13
  %.not.i.i.i.i = icmp eq i8 %20, 0
  br i1 %.not.i.i.i.i, label %24, label %21

21:                                               ; preds = %18
  %22 = load i32, ptr %19, align 4, !tbaa !93
  %23 = add nsw i32 %22, 1
  store i32 %23, ptr %19, align 4, !tbaa !93
  br label %_ZNSt10shared_ptrIN7rocksdb14ObjectRegistryEEC2ERKS2_.exit

24:                                               ; preds = %18
  %25 = atomicrmw volatile add ptr %19, i32 1 acq_rel, align 4
  br label %_ZNSt10shared_ptrIN7rocksdb14ObjectRegistryEEC2ERKS2_.exit

_ZNSt10shared_ptrIN7rocksdb14ObjectRegistryEEC2ERKS2_.exit: ; preds = %12, %21, %24
  ret void

26:                                               ; preds = %6
  %27 = landingpad { ptr, i32 }
          cleanup
  br label %30

28:                                               ; preds = %10, %8
  %29 = landingpad { ptr, i32 }
          cleanup
  tail call void @_ZdlPvm(ptr noundef nonnull %7, i64 noundef 16) #25
  br label %30

30:                                               ; preds = %28, %26
  %.pn = phi { ptr, i32 } [ %29, %28 ], [ %27, %26 ]
  tail call void @__cxa_guard_abort(ptr nonnull @_ZGVZN7rocksdb14ObjectRegistry7DefaultEvE8instance) #23
  resume { ptr, i32 } %.pn
}